target datalayout = "e-m:e-p270:32:32-p271:32:32-p272:64:64-i64:64-i128:128-f80:128-n8:16:32:64-S128"
target triple = "x86_64-pc-linux-gnu"

%struct.Curl_URL = type { ptr, ptr, ptr, ptr, ptr, ptr, ptr, ptr, ptr, ptr, i64 }

@Curl_cstrdup = external global ptr, align 8
@.str.18 = private unnamed_addr constant [25 x i8] c"0123456789abcdefABCDEF:.\00", align 1
@.str.19 = private unnamed_addr constant [3 x i8] c"25\00", align 1

; Function Attrs: nounwind uwtable
define internal i32 @ipv6_parse(ptr noundef %0, ptr noundef %1, i64 noundef %2) #0 {
  %4 = alloca i32, align 4
  %5 = alloca ptr, align 8
  %6 = alloca ptr, align 8
  %7 = alloca i64, align 8
  %8 = alloca i64, align 8
  %9 = alloca [16 x i8], align 16
  %10 = alloca i32, align 4
  %11 = alloca ptr, align 8
  %12 = alloca [16 x i8], align 16
  %13 = alloca [46 x i8], align 16
  store ptr %0, ptr %5, align 8
  store ptr %1, ptr %6, align 8
  store i64 %2, ptr %7, align 8
  br label %14

14:                                               ; preds = %3
  br label %15

15:                                               ; preds = %14
  %16 = load i64, ptr %7, align 8
  %17 = icmp ult i64 %16, 4
  br i1 %17, label %18, label %19

18:                                               ; preds = %15
  store i32 22, ptr %4, align 4
  br label %150

19:                                               ; preds = %15
  %20 = load ptr, ptr %6, align 8
  %21 = getelementptr inbounds i8, ptr %20, i32 1
  store ptr %21, ptr %6, align 8
  %22 = load i64, ptr %7, align 8
  %23 = sub i64 %22, 2
  store i64 %23, ptr %7, align 8
  %24 = load ptr, ptr %6, align 8
  %25 = call i64 @strspn(ptr noundef %24, ptr noundef @.str.18) #7
  store i64 %25, ptr %8, align 8
  %26 = load i64, ptr %7, align 8
  %27 = load i64, ptr %8, align 8
  %28 = icmp ne i64 %26, %27
  br i1 %28, label %29, label %117

29:                                               ; preds = %19
  %30 = load i64, ptr %8, align 8
  store i64 %30, ptr %7, align 8
  %31 = load ptr, ptr %6, align 8
  %32 = load i64, ptr %8, align 8
  %33 = getelementptr inbounds i8, ptr %31, i64 %32
  %34 = load i8, ptr %33, align 1
  %35 = sext i8 %34 to i32
  %36 = icmp eq i32 %35, 37
  br i1 %36, label %37, label %115

37:                                               ; preds = %29
  store i32 0, ptr %10, align 4
  %38 = load ptr, ptr %6, align 8
  %39 = load i64, ptr %8, align 8
  %40 = add i64 %39, 1
  %41 = getelementptr inbounds i8, ptr %38, i64 %40
  store ptr %41, ptr %11, align 8
  %42 = load ptr, ptr %11, align 8
  %43 = call i32 @strncmp(ptr noundef %42, ptr noundef @.str.19, i64 noundef 2) #7
  %44 = icmp ne i32 %43, 0
  br i1 %44, label %60, label %45

45:                                               ; preds = %37
  %46 = load ptr, ptr %11, align 8
  %47 = getelementptr inbounds i8, ptr %46, i64 2
  %48 = load i8, ptr %47, align 1
  %49 = sext i8 %48 to i32
  %50 = icmp ne i32 %49, 0
  br i1 %50, label %51, label %60

51:                                               ; preds = %45
  %52 = load ptr, ptr %11, align 8
  %53 = getelementptr inbounds i8, ptr %52, i64 2
  %54 = load i8, ptr %53, align 1
  %55 = sext i8 %54 to i32
  %56 = icmp ne i32 %55, 93
  br i1 %56, label %57, label %60

57:                                               ; preds = %51
  %58 = load ptr, ptr %11, align 8
  %59 = getelementptr inbounds i8, ptr %58, i64 2
  store ptr %59, ptr %11, align 8
  br label %60

60:                                               ; preds = %57, %51, %45, %37
  br label %61

61:                                               ; preds = %76, %60
  %62 = load ptr, ptr %11, align 8
  %63 = load i8, ptr %62, align 1
  %64 = sext i8 %63 to i32
  %65 = icmp ne i32 %64, 0
  br i1 %65, label %66, label %74

66:                                               ; preds = %61
  %67 = load ptr, ptr %11, align 8
  %68 = load i8, ptr %67, align 1
  %69 = sext i8 %68 to i32
  %70 = icmp ne i32 %69, 93
  br i1 %70, label %71, label %74

71:                                               ; preds = %66
  %72 = load i32, ptr %10, align 4
  %73 = icmp slt i32 %72, 15
  br label %74

74:                                               ; preds = %71, %66, %61
  %75 = phi i1 [ false, %66 ], [ false, %61 ], [ %73, %71 ]
  br i1 %75, label %76, label %84

76:                                               ; preds = %74
  %77 = load ptr, ptr %11, align 8
  %78 = getelementptr inbounds i8, ptr %77, i32 1
  store ptr %78, ptr %11, align 8
  %79 = load i8, ptr %77, align 1
  %80 = load i32, ptr %10, align 4
  %81 = add nsw i32 %80, 1
  store i32 %81, ptr %10, align 4
  %82 = sext i32 %80 to i64
  %83 = getelementptr inbounds [16 x i8], ptr %9, i64 0, i64 %82
  store i8 %79, ptr %83, align 1
  br label %61, !llvm.loop !16

84:                                               ; preds = %74
  %85 = load i32, ptr %10, align 4
  %86 = icmp ne i32 %85, 0
  br i1 %86, label %87, label %92

87:                                               ; preds = %84
  %88 = load ptr, ptr %11, align 8
  %89 = load i8, ptr %88, align 1
  %90 = sext i8 %89 to i32
  %91 = icmp ne i32 93, %90
  br i1 %91, label %92, label %93

92:                                               ; preds = %87, %84
  store i32 22, ptr %4, align 4
  br label %150

93:                                               ; preds = %87
  %94 = load i32, ptr %10, align 4
  %95 = sext i32 %94 to i64
  %96 = getelementptr inbounds [16 x i8], ptr %9, i64 0, i64 %95
  store i8 0, ptr %96, align 1
  %97 = load ptr, ptr @Curl_cstrdup, align 8
  %98 = getelementptr inbounds [16 x i8], ptr %9, i64 0, i64 0
  %99 = call ptr %97(ptr noundef %98)
  %100 = load ptr, ptr %5, align 8
  %101 = getelementptr inbounds %struct.Curl_URL, ptr %100, i32 0, i32 5
  store ptr %99, ptr %101, align 8
  %102 = load ptr, ptr %5, align 8
  %103 = getelementptr inbounds %struct.Curl_URL, ptr %102, i32 0, i32 5
  %104 = load ptr, ptr %103, align 8
  %105 = icmp ne ptr %104, null
  br i1 %105, label %107, label %106

106:                                              ; preds = %93
  store i32 7, ptr %4, align 4
  br label %150

107:                                              ; preds = %93
  %108 = load ptr, ptr %6, align 8
  %109 = load i64, ptr %8, align 8
  %110 = getelementptr inbounds i8, ptr %108, i64 %109
  store i8 93, ptr %110, align 1
  %111 = load ptr, ptr %6, align 8
  %112 = load i64, ptr %8, align 8
  %113 = add i64 %112, 1
  %114 = getelementptr inbounds i8, ptr %111, i64 %113
  store i8 0, ptr %114, align 1
  br label %116

115:                                              ; preds = %29
  store i32 22, ptr %4, align 4
  br label %150

116:                                              ; preds = %107
  br label %117

117:                                              ; preds = %116, %19
  %118 = load ptr, ptr %6, align 8
  %119 = load i64, ptr %7, align 8
  %120 = getelementptr inbounds i8, ptr %118, i64 %119
  store i8 0, ptr %120, align 1
  %121 = load ptr, ptr %6, align 8
  %122 = getelementptr inbounds [16 x i8], ptr %12, i64 0, i64 0
  %123 = call i32 @inet_pton(i32 noundef 10, ptr noundef %121, ptr noundef %122) #8
  %124 = icmp ne i32 1, %123
  br i1 %124, label %125, label %126

125:                                              ; preds = %117
  store i32 22, ptr %4, align 4
  br label %150

126:                                              ; preds = %117
  %127 = getelementptr inbounds [16 x i8], ptr %12, i64 0, i64 0
  %128 = getelementptr inbounds [46 x i8], ptr %13, i64 0, i64 0
  %129 = call ptr @inet_ntop(i32 noundef 10, ptr noundef %127, ptr noundef %128, i32 noundef 46) #8
  %130 = icmp ne ptr %129, null
  br i1 %130, label %131, label %146

131:                                              ; preds = %126
  %132 = getelementptr inbounds [46 x i8], ptr %13, i64 0, i64 0
  %133 = call i64 @strlen(ptr noundef %132) #7
  %134 = load i64, ptr %7, align 8
  %135 = icmp ult i64 %133, %134
  br i1 %135, label %136, label %146

136:                                              ; preds = %131
  %137 = load ptr, ptr %6, align 8
  %138 = getelementptr inbounds [46 x i8], ptr %13, i64 0, i64 0
  %139 = call ptr @strcpy(ptr noundef %137, ptr noundef %138) #8
  %140 = getelementptr inbounds [46 x i8], ptr %13, i64 0, i64 0
  %141 = call i64 @strlen(ptr noundef %140) #7
  store i64 %141, ptr %7, align 8
  %142 = load ptr, ptr %6, align 8
  %143 = load i64, ptr %7, align 8
  %144 = add i64 %143, 1
  %145 = getelementptr inbounds i8, ptr %142, i64 %144
  store i8 0, ptr %145, align 1
  br label %146

146:                                              ; preds = %136, %131, %126
  %147 = load ptr, ptr %6, align 8
  %148 = load i64, ptr %7, align 8
  %149 = getelementptr inbounds i8, ptr %147, i64 %148
  store i8 93, ptr %149, align 1
  store i32 0, ptr %4, align 4
  br label %150

150:                                              ; preds = %146, %125, %115, %106, %92, %18
  %151 = load i32, ptr %4, align 4
  ret i32 %151
}