; Function Attrs: nounwind uwtable
define internal fastcc range(i32 0, 23) i32 @ipv6_parse(ptr noundef writeonly captures(none) %0, ptr noundef %1, i64 noundef %2) unnamed_addr #0 {
  %4 = alloca [16 x i8], align 16
  %5 = alloca [16 x i8], align 16
  %6 = alloca [46 x i8], align 16
  %7 = icmp ult i64 %2, 4
  br i1 %7, label %.thread, label %8

8:                                                ; preds = %3
  %9 = getelementptr inbounds nuw i8, ptr %1, i64 1
  %10 = add i64 %2, -2
  %11 = tail call i64 @strspn(ptr noundef nonnull %9, ptr noundef nonnull @.str.18) #11
  %.not = icmp eq i64 %10, %11
  br i1 %.not, label %38, label %12

12:                                               ; preds = %8
  %13 = getelementptr inbounds i8, ptr %9, i64 %11
  %14 = load i8, ptr %13, align 1
  %15 = icmp eq i8 %14, 37
  br i1 %15, label %sub_0, label %.thread

sub_0:                                            ; preds = %12
  %16 = getelementptr i8, ptr %13, i64 1
  %17 = load i8, ptr %16, align 1
  %.not65 = icmp eq i8 %17, 50
  br i1 %.not65, label %.tail, label %.tail.thread

.tail:                                            ; preds = %sub_0
  %18 = getelementptr i8, ptr %13, i64 2
  %19 = load i8, ptr %18, align 1
  %20 = icmp eq i8 %19, 53
  br i1 %20, label %21, label %.lr.ph.preheader

21:                                               ; preds = %.tail
  %22 = getelementptr i8, ptr %13, i64 3
  %23 = load i8, ptr %22, align 1
  switch i8 %23, label %.tail.thread [
    i8 0, label %.lr.ph.preheader
    i8 93, label %.lr.ph.preheader
  ]

.tail.thread:                                     ; preds = %21, %sub_0
  %24 = phi i8 [ %17, %sub_0 ], [ %23, %21 ]
  %.0 = phi ptr [ %16, %sub_0 ], [ %22, %21 ]
  %.not5162 = icmp eq i8 %24, 0
  br i1 %.not5162, label %.thread, label %.lr.ph.preheader

.lr.ph.preheader:                                 ; preds = %21, %21, %.tail, %.tail.thread
  %.ph = phi i8 [ %24, %.tail.thread ], [ 50, %.tail ], [ 50, %21 ], [ 50, %21 ]
  %.164.ph = phi ptr [ %.0, %.tail.thread ], [ %16, %.tail ], [ %16, %21 ], [ %16, %21 ]
  br label %.lr.ph

.lr.ph:                                           ; preds = %.lr.ph.preheader, %28
  %indvars.iv = phi i64 [ %indvars.iv.next, %28 ], [ 0, %.lr.ph.preheader ]
  %25 = phi i8 [ %31, %28 ], [ %.ph, %.lr.ph.preheader ]
  %.164 = phi ptr [ %29, %28 ], [ %.164.ph, %.lr.ph.preheader ]
  %26 = icmp ne i8 %25, 93
  %27 = icmp samesign ult i64 %indvars.iv, 15
  %or.cond = select i1 %26, i1 %27, i1 false
  br i1 %or.cond, label %28, label %.critedge

28:                                               ; preds = %.lr.ph
  %29 = getelementptr inbounds nuw i8, ptr %.164, i64 1
  %indvars.iv.next = add nuw nsw i64 %indvars.iv, 1
  %30 = getelementptr inbounds nuw [16 x i8], ptr %4, i64 0, i64 %indvars.iv
  store i8 %25, ptr %30, align 1
  %31 = load i8, ptr %29, align 1
  %.not51 = icmp eq i8 %31, 0
  br i1 %.not51, label %.thread, label %.lr.ph, !llvm.loop !17

.critedge:                                        ; preds = %.lr.ph
  %.not52 = icmp ne i64 %indvars.iv, 0
  %.not53 = icmp eq i8 %25, 93
  %or.cond59 = and i1 %.not52, %.not53
  br i1 %or.cond59, label %32, label %.thread

32:                                               ; preds = %.critedge
  %33 = getelementptr inbounds nuw [16 x i8], ptr %4, i64 0, i64 %indvars.iv
  store i8 0, ptr %33, align 1
  %34 = load ptr, ptr @Curl_cstrdup, align 8
  %35 = call ptr %34(ptr noundef nonnull %4) #10
  %36 = getelementptr inbounds nuw i8, ptr %0, i64 40
  store ptr %35, ptr %36, align 8
  %.not54 = icmp eq ptr %35, null
  br i1 %.not54, label %.thread, label %37

37:                                               ; preds = %32
  store i8 93, ptr %13, align 1
  store i8 0, ptr %16, align 1
  br label %38

38:                                               ; preds = %37, %8
  %.041 = phi i64 [ %11, %37 ], [ %10, %8 ]
  %39 = getelementptr inbounds i8, ptr %9, i64 %.041
  store i8 0, ptr %39, align 1
  %40 = call i32 @inet_pton(i32 noundef 10, ptr noundef nonnull %9, ptr noundef nonnull %5) #10
  %.not55 = icmp eq i32 %40, 1
  br i1 %.not55, label %41, label %.thread

41:                                               ; preds = %38
  %42 = call ptr @inet_ntop(i32 noundef 10, ptr noundef nonnull %5, ptr noundef nonnull %6, i32 noundef 46) #10
  %.not56 = icmp eq ptr %42, null
  br i1 %.not56, label %50, label %43

43:                                               ; preds = %41
  %44 = call i64 @strlen(ptr noundef nonnull dereferenceable(1) %6) #11
  %45 = icmp ult i64 %44, %.041
  br i1 %45, label %46, label %50

46:                                               ; preds = %43
  %47 = call ptr @strcpy(ptr noundef nonnull dereferenceable(1) %9, ptr noundef nonnull dereferenceable(1) %6) #10
  %48 = getelementptr i8, ptr %9, i64 %44
  %49 = getelementptr i8, ptr %48, i64 1
  store i8 0, ptr %49, align 1
  br label %50

50:                                               ; preds = %46, %43, %41
  %.142 = phi i64 [ %44, %46 ], [ %.041, %43 ], [ %.041, %41 ]
  %51 = getelementptr inbounds i8, ptr %9, i64 %.142
  store i8 93, ptr %51, align 1
  br label %.thread

.thread:                                          ; preds = %28, %.tail.thread, %38, %12, %32, %.critedge, %3, %50
  %.040 = phi i32 [ 0, %50 ], [ 22, %3 ], [ 22, %.critedge ], [ 7, %32 ], [ 22, %12 ], [ 22, %38 ], [ 22, %.tail.thread ], [ 22, %28 ]
  ret i32 %.040
}